Certificate:
    Data:
        Version: 3 (0x2)
        Serial Number: 5 (0x5)
    Signature Algorithm: sha256WithRSAEncryption
        Issuer: C=US, ST=CA, L=Berkeley, O=Celerate, OU=MyOrganizationalUnit, CN=Celerate CA/name=EasyRSA/emailAddress=max@denovogroup.org
        Validity
            Not Before: Jun  8 17:30:35 2015 GMT
            Not After : Jun  5 17:30:35 2025 GMT
        Subject: C=US, ST=CA, L=Berkeley, O=Celerate, OU=MyOrganizationalUnit, CN=denovo_soekris/name=EasyRSA/emailAddress=max@denovogroup.org
        Subject Public Key Info:
            Public Key Algorithm: rsaEncryption
                Public-Key: (1024 bit)
                Modulus:
                    00:c6:1e:3f:ef:67:29:cb:05:38:72:67:51:e7:6c:
                    e8:4e:5a:12:cb:f0:3e:d2:de:0d:bd:6c:ad:05:b8:
                    93:8e:a3:46:90:8b:f5:62:2f:ea:30:1a:d8:5f:61:
                    78:aa:83:0c:af:2e:b3:12:e3:02:82:bb:7a:bb:88:
                    98:31:15:7e:ab:7d:0a:01:b1:bf:61:98:11:41:f2:
                    56:89:49:90:a4:a4:10:43:2b:4c:3c:11:01:8f:d3:
                    cf:83:f6:b1:0a:94:b2:6b:c1:a9:d5:da:60:64:55:
                    e3:17:99:9d:a1:5d:9d:62:eb:c6:5e:75:d0:71:89:
                    3c:3f:e4:77:9d:5b:1e:08:4f
                Exponent: 65537 (0x10001)
        X509v3 extensions:
            X509v3 Basic Constraints: 
                CA:FALSE
            Netscape Comment: 
                Easy-RSA Generated Certificate
            X509v3 Subject Key Identifier: 
                E6:37:52:C1:92:D4:6F:2F:08:FB:8B:DA:98:68:6D:21:C6:75:92:49
            X509v3 Authority Key Identifier: 
                keyid:46:F8:47:A3:5E:BF:08:92:7F:D4:53:17:AF:95:31:4D:AD:1C:FC:AF
                DirName:/C=US/ST=CA/L=Berkeley/O=Celerate/OU=MyOrganizationalUnit/CN=Celerate CA/name=EasyRSA/emailAddress=max@denovogroup.org
                serial:AE:BE:02:BB:55:C2:A3:B9

            X509v3 Extended Key Usage: 
                TLS Web Client Authentication
            X509v3 Key Usage: 
                Digital Signature
            X509v3 Subject Alternative Name: 
                DNS:denovo_soekris
    Signature Algorithm: sha256WithRSAEncryption
         07:64:6f:f2:02:a8:40:90:38:48:33:b3:d5:e8:9e:77:9b:50:
         b6:a2:2c:74:be:83:91:96:ad:ae:53:de:ae:10:06:55:15:d3:
         62:28:9c:28:6b:dc:64:67:03:29:52:9a:32:50:f9:08:3c:13:
         c5:c6:b3:e8:33:43:4e:86:94:3c:b3:4d:e1:54:6b:77:ef:53:
         cd:16:05:f6:5c:46:c0:d5:a0:cf:72:5e:70:86:a0:63:95:db:
         be:cc:52:14:7a:bd:6c:7f:08:be:c5:89:85:d1:f2:e5:4b:1f:
         16:c8:42:93:9c:f8:8f:0e:05:af:b1:ad:03:0d:cf:e1:2d:94:
         f8:95
-----BEGIN CERTIFICATE-----
MIIEUDCCA7mgAwIBAgIBBTANBgkqhkiG9w0BAQsFADCBqzELMAkGA1UEBhMCVVMx
CzAJBgNVBAgTAkNBMREwDwYDVQQHEwhCZXJrZWxleTERMA8GA1UEChMIQ2VsZXJh
dGUxHTAbBgNVBAsTFE15T3JnYW5pemF0aW9uYWxVbml0MRQwEgYDVQQDEwtDZWxl
cmF0ZSBDQTEQMA4GA1UEKRMHRWFzeVJTQTEiMCAGCSqGSIb3DQEJARYTbWF4QGRl
bm92b2dyb3VwLm9yZzAeFw0xNTA2MDgxNzMwMzVaFw0yNTA2MDUxNzMwMzVaMIGu
MQswCQYDVQQGEwJVUzELMAkGA1UECBMCQ0ExETAPBgNVBAcTCEJlcmtlbGV5MREw
DwYDVQQKEwhDZWxlcmF0ZTEdMBsGA1UECxMUTXlPcmdhbml6YXRpb25hbFVuaXQx
FzAVBgNVBAMUDmRlbm92b19zb2VrcmlzMRAwDgYDVQQpEwdFYXN5UlNBMSIwIAYJ
KoZIhvcNAQkBFhNtYXhAZGVub3ZvZ3JvdXAub3JnMIGfMA0GCSqGSIb3DQEBAQUA
A4GNADCBiQKBgQDGHj/vZynLBThyZ1HnbOhOWhLL8D7S3g29bK0FuJOOo0aQi/Vi
L+owGthfYXiqgwyvLrMS4wKCu3q7iJgxFX6rfQoBsb9hmBFB8laJSZCkpBBDK0w8
EQGP08+D9rEKlLJrwanV2mBkVeMXmZ2hXZ1i68ZeddBxiTw/5HedWx4ITwIDAQAB
o4IBfTCCAXkwCQYDVR0TBAIwADAtBglghkgBhvhCAQ0EIBYeRWFzeS1SU0EgR2Vu
ZXJhdGVkIENlcnRpZmljYXRlMB0GA1UdDgQWBBTmN1LBktRvLwj7i9qYaG0hxnWS
STCB4AYDVR0jBIHYMIHVgBRG+EejXr8Ikn/UUxevlTFNrRz8r6GBsaSBrjCBqzEL
MAkGA1UEBhMCVVMxCzAJBgNVBAgTAkNBMREwDwYDVQQHEwhCZXJrZWxleTERMA8G
A1UEChMIQ2VsZXJhdGUxHTAbBgNVBAsTFE15T3JnYW5pemF0aW9uYWxVbml0MRQw
EgYDVQQDEwtDZWxlcmF0ZSBDQTEQMA4GA1UEKRMHRWFzeVJTQTEiMCAGCSqGSIb3
DQEJARYTbWF4QGRlbm92b2dyb3VwLm9yZ4IJAK6+ArtVwqO5MBMGA1UdJQQMMAoG
CCsGAQUFBwMCMAsGA1UdDwQEAwIHgDAZBgNVHREEEjAQgg5kZW5vdm9fc29la3Jp
czANBgkqhkiG9w0BAQsFAAOBgQAHZG/yAqhAkDhIM7PV6J53m1C2oix0voORlq2u
U96uEAZVFdNiKJwoa9xkZwMpUpoyUPkIPBPFxrPoM0NOhpQ8s03hVGt371PNFgX2
XEbA1aDPcl5whqBjldu+zFIUer1sfwi+xYmF0fLlSx8WyEKTnPiPDgWvsa0DDc/h
LZT4lQ==
-----END CERTIFICATE-----
