Certificate:
    Data:
        Version: 3 (0x2)
        Serial Number: 6 (0x6)
    Signature Algorithm: sha256WithRSAEncryption
        Issuer: C=US, ST=CA, L=Berkeley, O=Celerate, OU=MyOrganizationalUnit, CN=Celerate CA/name=EasyRSA/emailAddress=max@denovogroup.org
        Validity
            Not Before: Jun  8 17:30:36 2015 GMT
            Not After : Jun  5 17:30:36 2025 GMT
        Subject: C=US, ST=CA, L=Berkeley, O=Celerate, OU=MyOrganizationalUnit, CN=icsi_soekris/name=EasyRSA/emailAddress=max@denovogroup.org
        Subject Public Key Info:
            Public Key Algorithm: rsaEncryption
                Public-Key: (1024 bit)
                Modulus:
                    00:d1:71:d4:78:bc:62:cd:db:6e:18:c8:4f:b5:6b:
                    1f:b6:a8:b8:45:5b:04:75:c7:a2:a4:bf:8c:47:4c:
                    f0:7f:19:89:4d:73:14:3c:11:c8:3c:1b:b8:82:9f:
                    29:3f:7c:ed:3f:b6:35:9b:0f:7b:a2:cf:e3:a0:21:
                    42:8a:93:20:fb:fa:1e:b2:93:52:11:12:0a:c4:0d:
                    5f:6f:f5:5b:94:cb:47:a0:fc:71:eb:2d:4e:ec:cc:
                    c5:74:76:03:10:33:ae:aa:d1:6f:f8:eb:b9:25:ca:
                    d2:df:1a:49:b6:96:fd:9e:7e:28:70:c7:cc:cd:a7:
                    34:97:3f:cc:b6:c3:72:dc:15
                Exponent: 65537 (0x10001)
        X509v3 extensions:
            X509v3 Basic Constraints: 
                CA:FALSE
            Netscape Comment: 
                Easy-RSA Generated Certificate
            X509v3 Subject Key Identifier: 
                ED:F2:7D:5B:F2:B9:C1:DD:FE:5F:CA:E6:F9:0D:36:BD:54:B3:4F:8F
            X509v3 Authority Key Identifier: 
                keyid:46:F8:47:A3:5E:BF:08:92:7F:D4:53:17:AF:95:31:4D:AD:1C:FC:AF
                DirName:/C=US/ST=CA/L=Berkeley/O=Celerate/OU=MyOrganizationalUnit/CN=Celerate CA/name=EasyRSA/emailAddress=max@denovogroup.org
                serial:AE:BE:02:BB:55:C2:A3:B9

            X509v3 Extended Key Usage: 
                TLS Web Client Authentication
            X509v3 Key Usage: 
                Digital Signature
            X509v3 Subject Alternative Name: 
                DNS:icsi_soekris
    Signature Algorithm: sha256WithRSAEncryption
         b3:ad:f1:05:57:b5:01:a9:21:d3:02:f0:9f:46:f8:86:f1:d9:
         62:e7:a4:83:fd:03:63:ee:eb:35:a3:49:72:bc:4b:a0:d4:e0:
         ed:69:69:c0:2f:33:f4:29:13:1a:28:31:f4:b5:ce:bc:33:8e:
         f8:af:44:55:48:25:6e:05:07:30:0b:79:70:67:bf:c2:d4:23:
         7d:0d:1c:5c:0f:e9:03:45:c2:66:d1:88:65:4c:3b:dd:07:41:
         c0:18:1c:1f:01:7e:d5:54:64:52:1d:db:b4:b2:01:87:75:cb:
         e2:12:65:dc:f6:0b:df:74:11:cb:8a:9c:b2:f7:77:74:25:b4:
         bd:75
-----BEGIN CERTIFICATE-----
MIIETDCCA7WgAwIBAgIBBjANBgkqhkiG9w0BAQsFADCBqzELMAkGA1UEBhMCVVMx
CzAJBgNVBAgTAkNBMREwDwYDVQQHEwhCZXJrZWxleTERMA8GA1UEChMIQ2VsZXJh
dGUxHTAbBgNVBAsTFE15T3JnYW5pemF0aW9uYWxVbml0MRQwEgYDVQQDEwtDZWxl
cmF0ZSBDQTEQMA4GA1UEKRMHRWFzeVJTQTEiMCAGCSqGSIb3DQEJARYTbWF4QGRl
bm92b2dyb3VwLm9yZzAeFw0xNTA2MDgxNzMwMzZaFw0yNTA2MDUxNzMwMzZaMIGs
MQswCQYDVQQGEwJVUzELMAkGA1UECBMCQ0ExETAPBgNVBAcTCEJlcmtlbGV5MREw
DwYDVQQKEwhDZWxlcmF0ZTEdMBsGA1UECxMUTXlPcmdhbml6YXRpb25hbFVuaXQx
FTATBgNVBAMUDGljc2lfc29la3JpczEQMA4GA1UEKRMHRWFzeVJTQTEiMCAGCSqG
SIb3DQEJARYTbWF4QGRlbm92b2dyb3VwLm9yZzCBnzANBgkqhkiG9w0BAQEFAAOB
jQAwgYkCgYEA0XHUeLxizdtuGMhPtWsftqi4RVsEdceipL+MR0zwfxmJTXMUPBHI
PBu4gp8pP3ztP7Y1mw97os/joCFCipMg+/oespNSERIKxA1fb/VblMtHoPxx6y1O
7MzFdHYDEDOuqtFv+Ou5JcrS3xpJtpb9nn4ocMfMzac0lz/MtsNy3BUCAwEAAaOC
AXswggF3MAkGA1UdEwQCMAAwLQYJYIZIAYb4QgENBCAWHkVhc3ktUlNBIEdlbmVy
YXRlZCBDZXJ0aWZpY2F0ZTAdBgNVHQ4EFgQU7fJ9W/K5wd3+X8rm+Q02vVSzT48w
geAGA1UdIwSB2DCB1YAURvhHo16/CJJ/1FMXr5UxTa0c/K+hgbGkga4wgasxCzAJ
BgNVBAYTAlVTMQswCQYDVQQIEwJDQTERMA8GA1UEBxMIQmVya2VsZXkxETAPBgNV
BAoTCENlbGVyYXRlMR0wGwYDVQQLExRNeU9yZ2FuaXphdGlvbmFsVW5pdDEUMBIG
A1UEAxMLQ2VsZXJhdGUgQ0ExEDAOBgNVBCkTB0Vhc3lSU0ExIjAgBgkqhkiG9w0B
CQEWE21heEBkZW5vdm9ncm91cC5vcmeCCQCuvgK7VcKjuTATBgNVHSUEDDAKBggr
BgEFBQcDAjALBgNVHQ8EBAMCB4AwFwYDVR0RBBAwDoIMaWNzaV9zb2VrcmlzMA0G
CSqGSIb3DQEBCwUAA4GBALOt8QVXtQGpIdMC8J9G+Ibx2WLnpIP9A2Pu6zWjSXK8
S6DU4O1pacAvM/QpExooMfS1zrwzjvivRFVIJW4FBzALeXBnv8LUI30NHFwP6QNF
wmbRiGVMO90HQcAYHB8BftVUZFId27SyAYd1y+ISZdz2C990EcuKnLL3d3QltL11
-----END CERTIFICATE-----
